; Function Attrs: mustprogress uwtable
define hidden noundef float @_ZN6Assimp3FBX17ParseTokenAsFloatERKNS0_5TokenE(ptr noundef nonnull align 8 dereferenceable(36) %t) local_unnamed_addr #3 personality ptr @__gxx_personality_v0 {
entry:
  %ret.i.i = alloca float, align 4
  %temp.i = alloca [32 x i8], align 16
  %ref.tmp = alloca %"class.std::__cxx11::basic_string", align 8
  %ref.tmp1 = alloca %"class.std::allocator.5", align 1
  call void @llvm.lifetime.start.p0(i64 32, ptr nonnull %temp.i)
  %type.i.i = getelementptr inbounds i8, ptr %t, i64 16
  %0 = load i32, ptr %type.i.i, align 8
  %cmp.not.i = icmp eq i32 %0, 2
  br i1 %cmp.not.i, label %if.end.i, label %if.then

if.end.i:                                         ; preds = %entry
  %column.i.i = getelementptr inbounds i8, ptr %t, i64 32
  %1 = load i32, ptr %column.i.i, align 8
  %cmp.i.i = icmp eq i32 %1, -1
  br i1 %cmp.i.i, label %if.then2.i, label %if.end20.i

if.then2.i:                                       ; preds = %if.end.i
  %2 = load ptr, ptr %t, align 8
  %3 = load i8, ptr %2, align 1
  switch i8 %3, label %if.then [
    i8 70, label %if.then13.i
    i8 68, label %if.else.i
  ]

if.then13.i:                                      ; preds = %if.then2.i
  %add.ptr.i = getelementptr inbounds i8, ptr %2, i64 1
  %add.ptr.val.i = load float, ptr %add.ptr.i, align 1
  br label %if.end

if.else.i:                                        ; preds = %if.then2.i
  %add.ptr16.i = getelementptr inbounds i8, ptr %2, i64 1
  %add.ptr16.val.i = load double, ptr %add.ptr16.i, align 1
  %conv19.i = fptrunc double %add.ptr16.val.i to float
  br label %if.end

if.end20.i:                                       ; preds = %if.end.i
  %send.i16.i = getelementptr inbounds i8, ptr %t, i64 8
  %4 = load ptr, ptr %send.i16.i, align 8
  %5 = load ptr, ptr %t, align 8
  %sub.ptr.lhs.cast.i = ptrtoint ptr %4 to i64
  %sub.ptr.rhs.cast.i = ptrtoint ptr %5 to i64
  %sub.ptr.sub.i = sub i64 %sub.ptr.lhs.cast.i, %sub.ptr.rhs.cast.i
  %cmp23.i = icmp ugt i64 %sub.ptr.sub.i, 31
  br i1 %cmp23.i, label %if.end, label %if.end25.i

if.end25.i:                                       ; preds = %if.end20.i
  %tobool.not.i.i.i.i.i.i = icmp eq ptr %4, %5
  br i1 %tobool.not.i.i.i.i.i.i, label %_ZSt4copyIPKcPcET0_T_S4_S3_.exit.i, label %if.then.i.i.i.i.i.i

if.then.i.i.i.i.i.i:                              ; preds = %if.end25.i
  call void @llvm.memmove.p0.p0.i64(ptr nonnull align 16 %temp.i, ptr align 1 %5, i64 %sub.ptr.sub.i, i1 false)
  br label %_ZSt4copyIPKcPcET0_T_S4_S3_.exit.i

_ZSt4copyIPKcPcET0_T_S4_S3_.exit.i:               ; preds = %if.then.i.i.i.i.i.i, %if.end25.i
  %arrayidx30.i = getelementptr inbounds [32 x i8], ptr %temp.i, i64 0, i64 %sub.ptr.sub.i
  store i8 0, ptr %arrayidx30.i, align 1
  call void @llvm.lifetime.start.p0(i64 4, ptr nonnull %ret.i.i)
  store float 0.000000e+00, ptr %ret.i.i, align 4
  %call.i.i = call noundef ptr @_ZN6Assimp17fast_atoreal_moveIf17DeadlyImportErrorEEPKcS3_RT_b(ptr noundef nonnull %temp.i, ptr noundef nonnull align 4 dereferenceable(4) %ret.i.i, i1 noundef zeroext true)
  %6 = load float, ptr %ret.i.i, align 4
  call void @llvm.lifetime.end.p0(i64 4, ptr nonnull %ret.i.i)
  br label %if.end

if.then:                                          ; preds = %entry, %if.then2.i
  %err.0 = phi ptr [ @.str.9, %entry ], [ @.str.15, %if.then2.i ]
  call void @llvm.lifetime.end.p0(i64 32, ptr nonnull %temp.i)
  call void @_ZNSaIcEC1Ev(ptr noundef nonnull align 1 dereferenceable(1) %ref.tmp1) #21
  invoke void @_ZNSt7__cxx1112basic_stringIcSt11char_traitsIcESaIcEEC2IS3_EEPKcRKS3_(ptr noundef nonnull align 8 dereferenceable(32) %ref.tmp, ptr noundef nonnull %err.0, ptr noundef nonnull align 1 dereferenceable(1) %ref.tmp1)
          to label %invoke.cont unwind label %lpad

invoke.cont:                                      ; preds = %if.then
  invoke fastcc void @_ZN12_GLOBAL__N_110ParseErrorERKNSt7__cxx1112basic_stringIcSt11char_traitsIcESaIcEEERKN6Assimp3FBX5TokenE(ptr noundef nonnull align 8 dereferenceable(32) %ref.tmp, ptr noundef nonnull align 8 dereferenceable(36) %t) #22
          to label %invoke.cont3 unwind label %lpad2

invoke.cont3:                                     ; preds = %invoke.cont
  unreachable

lpad:                                             ; preds = %if.then
  %7 = landingpad { ptr, i32 }
          cleanup
  br label %ehcleanup

lpad2:                                            ; preds = %invoke.cont
  %8 = landingpad { ptr, i32 }
          cleanup
  call void @_ZNSt7__cxx1112basic_stringIcSt11char_traitsIcESaIcEED1Ev(ptr noundef nonnull align 8 dereferenceable(32) %ref.tmp) #21
  br label %ehcleanup

ehcleanup:                                        ; preds = %lpad2, %lpad
  %.pn = phi { ptr, i32 } [ %8, %lpad2 ], [ %7, %lpad ]
  call void @_ZNSaIcED1Ev(ptr noundef nonnull align 1 dereferenceable(1) %ref.tmp1) #21
  resume { ptr, i32 } %.pn

if.end:                                           ; preds = %if.else.i, %if.then13.i, %if.end20.i, %_ZSt4copyIPKcPcET0_T_S4_S3_.exit.i
  %retval.0.i.ph = phi float [ 0.000000e+00, %if.end20.i ], [ %6, %_ZSt4copyIPKcPcET0_T_S4_S3_.exit.i ], [ %conv19.i, %if.else.i ], [ %add.ptr.val.i, %if.then13.i ]
  call void @llvm.lifetime.end.p0(i64 32, ptr nonnull %temp.i)
  ret float %retval.0.i.ph
}